; Function Attrs: nounwind uwtable
define internal ptr @resource_getpagesize(ptr readnone captures(none) %0, ptr readnone captures(none) %1) #0 {
  %3 = tail call i32 @getpagesize() #7
  %4 = icmp eq i32 %3, -1
  br i1 %4, label %5, label %7

5:                                                ; preds = %2
  %6 = tail call ptr @PyErr_Occurred() #6
  %.not = icmp eq ptr %6, null
  br i1 %.not, label %7, label %10

7:                                                ; preds = %5, %2
  %8 = sext i32 %3 to i64
  %9 = tail call ptr @PyLong_FromLong(i64 noundef %8) #6
  br label %10

10:                                               ; preds = %5, %7
  %.0 = phi ptr [ null, %5 ], [ %9, %7 ]
  ret ptr %.0
}